target datalayout = "e-m:e-p270:32:32-p271:32:32-p272:64:64-i64:64-i128:128-f80:128-n8:16:32:64-S128"
target triple = "x86_64-pc-linux-gnu"

%struct.ForEachState = type { ptr, i32 }
%union.ListCell = type { ptr }
%struct.QualCost = type { double, double }
%struct.List = type { i32, i32, i32, ptr, [0 x %union.ListCell] }
%struct.EquivalenceClass = type { i32, ptr, i32, ptr, ptr, ptr, ptr, i8, i8, i8, i32, i32, i32, ptr }
%struct.RelOptInfo = type { i32, i32, ptr, double, i8, i8, i8, ptr, ptr, ptr, ptr, ptr, ptr, ptr, ptr, ptr, ptr, i32, i32, i32, i16, i16, ptr, ptr, ptr, ptr, ptr, ptr, ptr, ptr, i32, double, double, ptr, ptr, ptr, i32, i32, i32, i32, i8, ptr, ptr, ptr, ptr, ptr, %struct.QualCost, i32, ptr, i8, i8, ptr, ptr, ptr, ptr, i32, ptr, i8, ptr, ptr, ptr, ptr, ptr, ptr }

; Function Attrs: inlinehint nounwind uwtable
define internal i32 @list_length(ptr noundef %0) #2 {
  %2 = alloca ptr, align 8
  store ptr %0, ptr %2, align 8
  %3 = load ptr, ptr %2, align 8
  %4 = icmp ne ptr %3, null
  br i1 %4, label %5, label %9

5:                                                ; preds = %1
  %6 = load ptr, ptr %2, align 8
  %7 = getelementptr inbounds nuw %struct.List, ptr %6, i32 0, i32 1
  %8 = load i32, ptr %7, align 4
  br label %10

9:                                                ; preds = %1
  br label %10

10:                                               ; preds = %9, %5
  %11 = phi i32 [ %8, %5 ], [ 0, %9 ]
  ret i32 %11
}

; Function Attrs: nounwind uwtable
define dso_local ptr @generate_join_implied_equalities_for_ecs(ptr noundef %0, ptr noundef %1, ptr noundef %2, ptr noundef %3, ptr noundef %4) #0 {
  %6 = alloca ptr, align 8
  %7 = alloca ptr, align 8
  %8 = alloca ptr, align 8
  %9 = alloca ptr, align 8
  %10 = alloca ptr, align 8
  %11 = alloca ptr, align 8
  %12 = alloca ptr, align 8
  %13 = alloca ptr, align 8
  %14 = alloca ptr, align 8
  %15 = alloca ptr, align 8
  %16 = alloca %struct.ForEachState, align 8
  %17 = alloca i32, align 4
  %18 = alloca ptr, align 8
  %19 = alloca ptr, align 8
  store ptr %0, ptr %6, align 8
  store ptr %1, ptr %7, align 8
  store ptr %2, ptr %8, align 8
  store ptr %3, ptr %9, align 8
  store ptr %4, ptr %10, align 8
  call void @llvm.lifetime.start.p0(i64 8, ptr %11) #6
  store ptr null, ptr %11, align 8
  call void @llvm.lifetime.start.p0(i64 8, ptr %12) #6
  %20 = load ptr, ptr %10, align 8
  %21 = getelementptr inbounds nuw %struct.RelOptInfo, ptr %20, i32 0, i32 2
  %22 = load ptr, ptr %21, align 8
  store ptr %22, ptr %12, align 8
  call void @llvm.lifetime.start.p0(i64 8, ptr %13) #6
  call void @llvm.lifetime.start.p0(i64 8, ptr %14) #6
  call void @llvm.lifetime.start.p0(i64 8, ptr %15) #6
  %23 = load ptr, ptr %10, align 8
  %24 = getelementptr inbounds nuw %struct.RelOptInfo, ptr %23, i32 0, i32 1
  %25 = load i32, ptr %24, align 4
  %26 = icmp eq i32 %25, 2
  br i1 %26, label %37, label %27

27:                                               ; preds = %5
  %28 = load ptr, ptr %10, align 8
  %29 = getelementptr inbounds nuw %struct.RelOptInfo, ptr %28, i32 0, i32 1
  %30 = load i32, ptr %29, align 4
  %31 = icmp eq i32 %30, 3
  br i1 %31, label %37, label %32

32:                                               ; preds = %27
  %33 = load ptr, ptr %10, align 8
  %34 = getelementptr inbounds nuw %struct.RelOptInfo, ptr %33, i32 0, i32 1
  %35 = load i32, ptr %34, align 4
  %36 = icmp eq i32 %35, 5
  br i1 %36, label %37, label %44

37:                                               ; preds = %32, %27, %5
  %38 = load ptr, ptr %10, align 8
  %39 = getelementptr inbounds nuw %struct.RelOptInfo, ptr %38, i32 0, i32 53
  %40 = load ptr, ptr %39, align 8
  store ptr %40, ptr %13, align 8
  %41 = load ptr, ptr %9, align 8
  %42 = load ptr, ptr %13, align 8
  %43 = call ptr @bms_union(ptr noundef %41, ptr noundef %42)
  store ptr %43, ptr %14, align 8
  br label %47

44:                                               ; preds = %32
  %45 = load ptr, ptr %12, align 8
  store ptr %45, ptr %13, align 8
  %46 = load ptr, ptr %8, align 8
  store ptr %46, ptr %14, align 8
  br label %47

47:                                               ; preds = %44, %37
  call void @llvm.lifetime.start.p0(i64 16, ptr %16) #6
  %48 = getelementptr inbounds nuw %struct.ForEachState, ptr %16, i32 0, i32 0
  %49 = load ptr, ptr %7, align 8
  store ptr %49, ptr %48, align 8
  %50 = getelementptr inbounds nuw %struct.ForEachState, ptr %16, i32 0, i32 1
  store i32 0, ptr %50, align 8
  %51 = getelementptr i8, ptr %16, i64 12
  call void @llvm.memset.p0.i64(ptr align 4 %51, i8 0, i64 4, i1 false)
  br label %52

52:                                               ; preds = %132, %47
  %53 = getelementptr inbounds nuw %struct.ForEachState, ptr %16, i32 0, i32 0
  %54 = load ptr, ptr %53, align 8
  %55 = icmp ne ptr %54, null
  br i1 %55, label %56, label %73

56:                                               ; preds = %52
  %57 = getelementptr inbounds nuw %struct.ForEachState, ptr %16, i32 0, i32 1
  %58 = load i32, ptr %57, align 8
  %59 = getelementptr inbounds nuw %struct.ForEachState, ptr %16, i32 0, i32 0
  %60 = load ptr, ptr %59, align 8
  %61 = getelementptr inbounds nuw %struct.List, ptr %60, i32 0, i32 1
  %62 = load i32, ptr %61, align 4
  %63 = icmp slt i32 %58, %62
  br i1 %63, label %64, label %73

64:                                               ; preds = %56
  %65 = getelementptr inbounds nuw %struct.ForEachState, ptr %16, i32 0, i32 0
  %66 = load ptr, ptr %65, align 8
  %67 = getelementptr inbounds nuw %struct.List, ptr %66, i32 0, i32 3
  %68 = load ptr, ptr %67, align 8
  %69 = getelementptr inbounds nuw %struct.ForEachState, ptr %16, i32 0, i32 1
  %70 = load i32, ptr %69, align 8
  %71 = sext i32 %70 to i64
  %72 = getelementptr inbounds %union.ListCell, ptr %68, i64 %71
  store ptr %72, ptr %15, align 8
  br label %74

73:                                               ; preds = %56, %52
  store ptr null, ptr %15, align 8
  br label %74

74:                                               ; preds = %73, %64
  %75 = phi i32 [ 1, %64 ], [ 0, %73 ]
  %76 = icmp ne i32 %75, 0
  br i1 %76, label %78, label %77

77:                                               ; preds = %74
  store i32 2, ptr %17, align 4
  call void @llvm.lifetime.end.p0(i64 16, ptr %16) #6
  br label %136

78:                                               ; preds = %74
  call void @llvm.lifetime.start.p0(i64 8, ptr %18) #6
  %79 = load ptr, ptr %15, align 8
  %80 = load ptr, ptr %79, align 8
  store ptr %80, ptr %18, align 8
  call void @llvm.lifetime.start.p0(i64 8, ptr %19) #6
  store ptr null, ptr %19, align 8
  %81 = load ptr, ptr %18, align 8
  %82 = getelementptr inbounds nuw %struct.EquivalenceClass, ptr %81, i32 0, i32 7
  %83 = load i8, ptr %82, align 8, !range !4, !noundef !5
  %84 = trunc i8 %83 to i1
  br i1 %84, label %85, label %86

85:                                               ; preds = %78
  store i32 4, ptr %17, align 4
  br label %129

86:                                               ; preds = %78
  %87 = load ptr, ptr %18, align 8
  %88 = getelementptr inbounds nuw %struct.EquivalenceClass, ptr %87, i32 0, i32 3
  %89 = load ptr, ptr %88, align 8
  %90 = call i32 @list_length(ptr noundef %89)
  %91 = icmp sle i32 %90, 1
  br i1 %91, label %92, label %93

92:                                               ; preds = %86
  store i32 4, ptr %17, align 4
  br label %129

93:                                               ; preds = %86
  %94 = load ptr, ptr %18, align 8
  %95 = getelementptr inbounds nuw %struct.EquivalenceClass, ptr %94, i32 0, i32 6
  %96 = load ptr, ptr %95, align 8
  %97 = load ptr, ptr %14, align 8
  %98 = call zeroext i1 @bms_overlap(ptr noundef %96, ptr noundef %97)
  br i1 %98, label %100, label %99

99:                                               ; preds = %93
  store i32 4, ptr %17, align 4
  br label %129

100:                                              ; preds = %93
  %101 = load ptr, ptr %18, align 8
  %102 = getelementptr inbounds nuw %struct.EquivalenceClass, ptr %101, i32 0, i32 9
  %103 = load i8, ptr %102, align 2, !range !4, !noundef !5
  %104 = trunc i8 %103 to i1
  br i1 %104, label %112, label %105

105:                                              ; preds = %100
  %106 = load ptr, ptr %6, align 8
  %107 = load ptr, ptr %18, align 8
  %108 = load ptr, ptr %8, align 8
  %109 = load ptr, ptr %9, align 8
  %110 = load ptr, ptr %12, align 8
  %111 = call ptr @generate_join_implied_equalities_normal(ptr noundef %106, ptr noundef %107, ptr noundef %108, ptr noundef %109, ptr noundef %110)
  store ptr %111, ptr %19, align 8
  br label %112

112:                                              ; preds = %105, %100
  %113 = load ptr, ptr %18, align 8
  %114 = getelementptr inbounds nuw %struct.EquivalenceClass, ptr %113, i32 0, i32 9
  %115 = load i8, ptr %114, align 2, !range !4, !noundef !5
  %116 = trunc i8 %115 to i1
  br i1 %116, label %117, label %125

117:                                              ; preds = %112
  %118 = load ptr, ptr %6, align 8
  %119 = load ptr, ptr %18, align 8
  %120 = load ptr, ptr %14, align 8
  %121 = load ptr, ptr %9, align 8
  %122 = load ptr, ptr %13, align 8
  %123 = load ptr, ptr %10, align 8
  %124 = call ptr @generate_join_implied_equalities_broken(ptr noundef %118, ptr noundef %119, ptr noundef %120, ptr noundef %121, ptr noundef %122, ptr noundef %123)
  store ptr %124, ptr %19, align 8
  br label %125

125:                                              ; preds = %117, %112
  %126 = load ptr, ptr %11, align 8
  %127 = load ptr, ptr %19, align 8
  %128 = call ptr @list_concat(ptr noundef %126, ptr noundef %127)
  store ptr %128, ptr %11, align 8
  store i32 0, ptr %17, align 4
  br label %129

129:                                              ; preds = %125, %99, %92, %85
  call void @llvm.lifetime.end.p0(i64 8, ptr %19) #6
  call void @llvm.lifetime.end.p0(i64 8, ptr %18) #6
  %130 = load i32, ptr %17, align 4
  switch i32 %130, label %138 [
    i32 0, label %131
    i32 4, label %132
  ]

131:                                              ; preds = %129
  br label %132

132:                                              ; preds = %131, %129
  %133 = getelementptr inbounds nuw %struct.ForEachState, ptr %16, i32 0, i32 1
  %134 = load i32, ptr %133, align 8
  %135 = add i32 %134, 1
  store i32 %135, ptr %133, align 8
  br label %52, !llvm.loop !32

136:                                              ; preds = %77
  %137 = load ptr, ptr %11, align 8
  store i32 1, ptr %17, align 4
  call void @llvm.lifetime.end.p0(i64 8, ptr %15) #6
  call void @llvm.lifetime.end.p0(i64 8, ptr %14) #6
  call void @llvm.lifetime.end.p0(i64 8, ptr %13) #6
  call void @llvm.lifetime.end.p0(i64 8, ptr %12) #6
  call void @llvm.lifetime.end.p0(i64 8, ptr %11) #6
  ret ptr %137

138:                                              ; preds = %129
  unreachable
}