; Function Attrs: nounwind uwtable
define dso_local ptr @generate_join_implied_equalities_for_ecs(ptr noundef %0, ptr noundef readonly captures(address_is_null) %1, ptr noundef %2, ptr noundef %3, ptr noundef %4) local_unnamed_addr #0 {
  %6 = getelementptr inbounds nuw i8, ptr %4, i64 8
  %7 = load ptr, ptr %6, align 8
  %8 = getelementptr inbounds nuw i8, ptr %4, i64 4
  %9 = load i32, ptr %8, align 4
  switch i32 %9, label %14 [
    i32 2, label %10
    i32 3, label %10
    i32 5, label %10
  ]

10:                                               ; preds = %5, %5, %5
  %11 = getelementptr inbounds nuw i8, ptr %4, i64 360
  %12 = load ptr, ptr %11, align 8
  %13 = tail call ptr @bms_union(ptr noundef %3, ptr noundef %12) #8
  br label %14

14:                                               ; preds = %5, %10
  %.038 = phi ptr [ %13, %10 ], [ %2, %5 ]
  %.037 = phi ptr [ %12, %10 ], [ %7, %5 ]
  %15 = getelementptr inbounds nuw i8, ptr %1, i64 4
  %.not = icmp eq ptr %1, null
  br i1 %.not, label %._crit_edge, label %.lr.ph

.lr.ph:                                           ; preds = %14
  %16 = getelementptr inbounds nuw i8, ptr %1, i64 16
  %17 = load i32, ptr %15, align 4
  %18 = icmp sgt i32 %17, 0
  br i1 %18, label %.lr.ph52, label %._crit_edge

._crit_edge:                                      ; preds = %list_length.exit.thread, %.lr.ph, %14
  %.035.lcssa = phi ptr [ null, %14 ], [ null, %.lr.ph ], [ %.136, %list_length.exit.thread ]
  ret ptr %.035.lcssa

.lr.ph52:                                         ; preds = %.lr.ph, %list_length.exit.thread
  %indvars.iv = phi i64 [ %indvars.iv.next, %list_length.exit.thread ], [ 0, %.lr.ph ]
  %.0354650 = phi ptr [ %.136, %list_length.exit.thread ], [ null, %.lr.ph ]
  %19 = load ptr, ptr %16, align 8
  %20 = getelementptr inbounds nuw %union.ListCell, ptr %19, i64 %indvars.iv
  %21 = load ptr, ptr %20, align 8
  %22 = getelementptr inbounds nuw i8, ptr %21, i64 56
  %23 = load i8, ptr %22, align 8, !range !4, !noundef !5
  %24 = trunc nuw i8 %23 to i1
  br i1 %24, label %list_length.exit.thread, label %25

25:                                               ; preds = %.lr.ph52
  %26 = getelementptr inbounds nuw i8, ptr %21, i64 24
  %27 = load ptr, ptr %26, align 8
  %.not.i = icmp eq ptr %27, null
  br i1 %.not.i, label %list_length.exit.thread, label %list_length.exit

list_length.exit:                                 ; preds = %25
  %28 = getelementptr inbounds nuw i8, ptr %27, i64 4
  %29 = load i32, ptr %28, align 4
  %30 = icmp slt i32 %29, 2
  br i1 %30, label %list_length.exit.thread, label %31

31:                                               ; preds = %list_length.exit
  %32 = getelementptr inbounds nuw i8, ptr %21, i64 48
  %33 = load ptr, ptr %32, align 8
  %34 = tail call zeroext i1 @bms_overlap(ptr noundef %33, ptr noundef %.038) #8
  br i1 %34, label %35, label %list_length.exit.thread

35:                                               ; preds = %31
  %36 = getelementptr inbounds nuw i8, ptr %21, i64 58
  %37 = load i8, ptr %36, align 2, !range !4, !noundef !5
  %38 = trunc nuw i8 %37 to i1
  br i1 %38, label %.thread, label %39

39:                                               ; preds = %35
  %40 = tail call fastcc ptr @generate_join_implied_equalities_normal(ptr noundef %0, ptr noundef nonnull %21, ptr noundef %2, ptr noundef %3, ptr noundef %7)
  %.pre = load i8, ptr %36, align 2, !range !4
  %41 = trunc nuw i8 %.pre to i1
  br i1 %41, label %.thread, label %44

.thread:                                          ; preds = %35, %39
  %42 = getelementptr i8, ptr %21, i64 32
  %.val = load ptr, ptr %42, align 8
  %43 = tail call fastcc ptr @generate_join_implied_equalities_broken(ptr noundef %0, ptr %.val, ptr noundef %.038, ptr noundef %3, ptr noundef %.037, ptr noundef %4)
  br label %44

44:                                               ; preds = %.thread, %39
  %.1 = phi ptr [ %43, %.thread ], [ %40, %39 ]
  %45 = tail call ptr @list_concat(ptr noundef %.0354650, ptr noundef %.1) #8
  br label %list_length.exit.thread

list_length.exit.thread:                          ; preds = %25, %31, %list_length.exit, %.lr.ph52, %44
  %.136 = phi ptr [ %45, %44 ], [ %.0354650, %.lr.ph52 ], [ %.0354650, %list_length.exit ], [ %.0354650, %31 ], [ %.0354650, %25 ]
  %indvars.iv.next = add nuw nsw i64 %indvars.iv, 1
  %46 = load i32, ptr %15, align 4
  %47 = sext i32 %46 to i64
  %48 = icmp slt i64 %indvars.iv.next, %47
  br i1 %48, label %.lr.ph52, label %._crit_edge
}